; Function Attrs: null_pointer_is_valid sspstrong uwtable
define internal i32 @dissect_s1ap(ptr noundef %0, ptr noundef %1, ptr noundef %2, ptr readnone captures(none) %3) #0 {
  %5 = alloca %struct._asn1_ctx_t, align 8
  %6 = getelementptr inbounds nuw i8, ptr %1, i64 8
  %7 = load ptr, ptr %6, align 8
  tail call void @col_set_str(ptr noundef %7, i32 noundef 35, ptr noundef nonnull @.str.2045)
  %8 = load ptr, ptr %6, align 8
  tail call void @col_clear(ptr noundef %8, i32 noundef 25)
  %9 = load i32, ptr @proto_s1ap, align 4
  %10 = tail call ptr @proto_tree_add_item(ptr noundef %2, i32 noundef %9, ptr noundef %0, i32 noundef 0, i32 noundef -1, i32 noundef 0)
  %11 = load i32, ptr @ett_s1ap, align 4
  %12 = tail call ptr @proto_item_add_subtree(ptr noundef %10, i32 noundef %11)
  %13 = getelementptr inbounds nuw i8, ptr %1, i64 408
  %14 = load ptr, ptr %13, align 8
  %15 = load i32, ptr @proto_s1ap, align 4
  %16 = tail call ptr @p_get_proto_data(ptr noundef %14, ptr noundef %1, i32 noundef %15, i32 noundef 0)
  %.not.i = icmp eq ptr %16, null
  br i1 %.not.i, label %17, label %s1ap_get_private_data.exit

17:                                               ; preds = %4
  %18 = load ptr, ptr %13, align 8
  %19 = tail call noalias dereferenceable_or_null(64) ptr @wmem_alloc0(ptr noundef %18, i64 noundef 64) #9
  %20 = load ptr, ptr %13, align 8
  %21 = load i32, ptr @proto_s1ap, align 4
  tail call void @p_add_proto_data(ptr noundef %20, ptr noundef %1, i32 noundef %21, i32 noundef 0, ptr noundef %19)
  br label %s1ap_get_private_data.exit

s1ap_get_private_data.exit:                       ; preds = %4, %17
  %.0.i = phi ptr [ %16, %4 ], [ %19, %17 ]
  %22 = tail call ptr @find_or_create_conversation(ptr noundef %1)
  %23 = load i32, ptr @proto_s1ap, align 4
  %24 = tail call ptr @conversation_get_proto_data(ptr noundef %22, i32 noundef %23)
  store ptr %24, ptr %.0.i, align 8
  %.not = icmp eq ptr %24, null
  br i1 %.not, label %25, label %37

25:                                               ; preds = %s1ap_get_private_data.exit
  %26 = tail call ptr @wmem_file_scope()
  %27 = tail call noalias dereferenceable_or_null(16) ptr @wmem_alloc(ptr noundef %26, i64 noundef 16) #9
  store ptr %27, ptr %.0.i, align 8
  %28 = tail call ptr @wmem_file_scope()
  %29 = tail call noalias ptr @wmem_map_new(ptr noundef %28, ptr noundef nonnull @wmem_int64_hash, ptr noundef nonnull @g_int64_equal)
  %30 = load ptr, ptr %.0.i, align 8
  store ptr %29, ptr %30, align 8
  %31 = tail call ptr @wmem_file_scope()
  %32 = tail call noalias ptr @wmem_tree_new(ptr noundef %31)
  %33 = load ptr, ptr %.0.i, align 8
  %34 = getelementptr inbounds nuw i8, ptr %33, i64 8
  store ptr %32, ptr %34, align 8
  %35 = load i32, ptr @proto_s1ap, align 4
  %36 = load ptr, ptr %.0.i, align 8
  tail call void @conversation_add_proto_data(ptr noundef %22, i32 noundef %35, ptr noundef %36)
  br label %37

37:                                               ; preds = %25, %s1ap_get_private_data.exit
  call void @llvm.lifetime.start.p0(i64 208, ptr nonnull %5) #8
  call void @asn1_ctx_init(ptr noundef nonnull %5, i32 noundef 1, i1 noundef zeroext true, ptr noundef %1)
  %38 = load i32, ptr @hf_s1ap_S1AP_PDU_PDU, align 4
  %39 = load i32, ptr @ett_s1ap_S1AP_PDU, align 4
  %40 = call i32 @dissect_per_choice(ptr noundef %0, i32 noundef 0, ptr noundef nonnull %5, ptr noundef %12, i32 noundef %38, i32 noundef %39, ptr noundef nonnull @S1AP_PDU_choice, ptr noundef null)
  call void @llvm.lifetime.end.p0(i64 208, ptr nonnull %5) #8
  %41 = call i32 @tvb_captured_length(ptr noundef %0)
  ret i32 %41
}